target datalayout = "e-m:e-p270:32:32-p271:32:32-p272:64:64-i64:64-i128:128-f80:128-n8:16:32:64-S128"
target triple = "x86_64-pc-linux-gnu"

%union.pthread_mutex_t = type { %struct.__pthread_mutex_s }
%struct.__pthread_mutex_s = type { i32, i32, i32, i32, i32, i16, i16, %struct.__pthread_internal_list }
%struct.__pthread_internal_list = type { ptr, ptr }
%struct._obj_io = type { ptr, ptr, ptr, ptr, i32, i32, i32, i32, i16, i32, ptr }
%struct.storage_compact_wrap = type { %struct._obj_io, %union.pthread_mutex_t, i8, i8, i8 }

; Function Attrs: nounwind uwtable
define internal void @_storage_compact_cb(ptr noundef %0, ptr noundef %1, i32 noundef %2) #0 {
  %4 = alloca ptr, align 8
  %5 = alloca ptr, align 8
  %6 = alloca i32, align 4
  %7 = alloca ptr, align 8
  store ptr %0, ptr %4, align 8, !tbaa !4
  store ptr %1, ptr %5, align 8, !tbaa !113
  store i32 %2, ptr %6, align 4, !tbaa !17
  call void @llvm.lifetime.start.p0(i64 8, ptr %7) #13
  %8 = load ptr, ptr %5, align 8, !tbaa !113
  %9 = getelementptr inbounds nuw %struct._obj_io, ptr %8, i32 0, i32 0
  %10 = load ptr, ptr %9, align 8, !tbaa !137
  store ptr %10, ptr %7, align 8, !tbaa !241
  %11 = load i32, ptr %6, align 4, !tbaa !17
  %12 = icmp slt i32 %11, 1
  br i1 %12, label %13, label %16

13:                                               ; preds = %3
  %14 = load ptr, ptr %7, align 8, !tbaa !241
  %15 = getelementptr inbounds nuw %struct.storage_compact_wrap, ptr %14, i32 0, i32 4
  store i8 1, ptr %15, align 2, !tbaa !187
  br label %16

16:                                               ; preds = %13, %3
  %17 = load ptr, ptr %7, align 8, !tbaa !241
  %18 = getelementptr inbounds nuw %struct.storage_compact_wrap, ptr %17, i32 0, i32 2
  store i8 1, ptr %18, align 8, !tbaa !171
  %19 = load ptr, ptr %7, align 8, !tbaa !241
  %20 = getelementptr inbounds nuw %struct.storage_compact_wrap, ptr %19, i32 0, i32 1
  %21 = call i32 @pthread_mutex_unlock(ptr noundef %20) #13
  call void @llvm.lifetime.end.p0(i64 8, ptr %7) #13
  ret void
}