; Function Attrs: nounwind uwtable
define internal void @_storage_compact_cb(ptr readnone captures(none) %0, ptr noundef readonly captures(none) %1, i32 noundef %2) #0 {
  %4 = load ptr, ptr %1, align 8, !tbaa !124
  %5 = icmp slt i32 %2, 1
  br i1 %5, label %6, label %8

6:                                                ; preds = %3
  %7 = getelementptr inbounds nuw i8, ptr %4, i64 106
  store i8 1, ptr %7, align 2, !tbaa !204
  br label %8

8:                                                ; preds = %6, %3
  %9 = getelementptr inbounds nuw i8, ptr %4, i64 104
  store i8 1, ptr %9, align 8, !tbaa !177
  %10 = getelementptr inbounds nuw i8, ptr %4, i64 64
  %11 = tail call i32 @pthread_mutex_unlock(ptr noundef nonnull %10) #21
  ret void
}